	.section	__TEXT,__text,regular,pure_instructions
	.build_version macos, 14, 0	sdk_version 14, 4
	.globl	_blank                          ; -- Begin function blank
	.p2align	2
_blank:                                 ; @blank
	.cfi_startproc
; %bb.0:
	sub	sp, sp, #32
	.cfi_def_cfa_offset 32
	stp	x29, x30, [sp, #16]             ; 16-byte Folded Spill
	add	x29, sp, #16
	.cfi_def_cfa w29, 16
	.cfi_offset w30, -8
	.cfi_offset w29, -16
	adrp	x0, _screen@PAGE
	add	x0, x0, _screen@PAGEOFF
	mov	w1, #32
	mov	x2, #1048576
	str	x2, [sp, #8]                    ; 8-byte Folded Spill
	bl	_memset
	ldr	x1, [sp, #8]                    ; 8-byte Folded Reload
	adrp	x0, _colors@PAGE
	add	x0, x0, _colors@PAGEOFF
	bl	_bzero
	ldp	x29, x30, [sp, #16]             ; 16-byte Folded Reload
	add	sp, sp, #32
	ret
	.cfi_endproc
                                        ; -- End function
	.globl	_foreword                       ; -- Begin function foreword
	.p2align	2
_foreword:                              ; @foreword
	.cfi_startproc
; %bb.0:
	sub	sp, sp, #64
	.cfi_def_cfa_offset 64
	stp	x29, x30, [sp, #48]             ; 16-byte Folded Spill
	add	x29, sp, #48
	.cfi_def_cfa w29, 16
	.cfi_offset w30, -8
	.cfi_offset w29, -16
	bl	_blank
	adrp	x8, l_.str@PAGE
	add	x8, x8, l_.str@PAGEOFF
	stur	x8, [x29, #-16]
	ldur	x0, [x29, #-16]
	bl	_strlen
	mov	x8, x0
	stur	w8, [x29, #-20]
	mov	w8, #6
	str	w8, [sp, #24]
	adrp	x8, _t@PAGE
	ldr	w8, [x8, _t@PAGEOFF]
	ldur	w9, [x29, #-20]
	add	w9, w9, #6
	subs	w8, w8, w9
	cset	w8, lt
	tbnz	w8, #0, LBB1_2
	b	LBB1_1
LBB1_1:
	mov	w8, #1
	and	w8, w8, #0x1
	and	w8, w8, #0x1
	sturb	w8, [x29, #-1]
	b	LBB1_19
LBB1_2:
	adrp	x8, _t@PAGE
	ldr	w8, [x8, _t@PAGEOFF]
	ldur	w9, [x29, #-20]
	subs	w8, w8, w9
	cset	w8, lt
	tbnz	w8, #0, LBB1_5
	b	LBB1_3
LBB1_3:
	adrp	x8, _t@PAGE
	ldr	w8, [x8, _t@PAGEOFF]
	ands	w8, w8, #0x1
	cset	w8, eq
	tbnz	w8, #0, LBB1_5
	b	LBB1_4
LBB1_4:
	mov	w8, #0
	and	w8, w8, #0x1
	and	w8, w8, #0x1
	sturb	w8, [x29, #-1]
	b	LBB1_19
LBB1_5:
	adrp	x8, _t@PAGE
	ldr	w8, [x8, _t@PAGEOFF]
	ldur	w9, [x29, #-20]
	subs	w8, w8, w9
	cset	w8, ge
	tbnz	w8, #0, LBB1_7
	b	LBB1_6
LBB1_6:
	adrp	x8, _t@PAGE
	ldr	w8, [x8, _t@PAGEOFF]
	str	w8, [sp, #8]                    ; 4-byte Folded Spill
	b	LBB1_8
LBB1_7:
	ldur	w8, [x29, #-20]
	str	w8, [sp, #8]                    ; 4-byte Folded Spill
	b	LBB1_8
LBB1_8:
	ldr	w8, [sp, #8]                    ; 4-byte Folded Reload
	str	w8, [sp, #20]
	str	wzr, [sp, #16]
	b	LBB1_9
LBB1_9:                                 ; =>This Loop Header: Depth=1
                                        ;     Child Loop BB1_11 Depth 2
	ldr	w8, [sp, #16]
	adrp	x9, _actual_h@PAGE
	ldr	w9, [x9, _actual_h@PAGEOFF]
	subs	w8, w8, w9
	cset	w8, ge
	tbnz	w8, #0, LBB1_18
	b	LBB1_10
LBB1_10:                                ;   in Loop: Header=BB1_9 Depth=1
	str	wzr, [sp, #12]
	b	LBB1_11
LBB1_11:                                ;   Parent Loop BB1_9 Depth=1
                                        ; =>  This Inner Loop Header: Depth=2
	ldr	w8, [sp, #12]
	adrp	x9, _actual_w@PAGE
	ldr	w9, [x9, _actual_w@PAGEOFF]
	subs	w8, w8, w9
	cset	w8, ge
	tbnz	w8, #0, LBB1_16
	b	LBB1_12
LBB1_12:                                ;   in Loop: Header=BB1_11 Depth=2
	ldr	w8, [sp, #16]
	adrp	x9, _actual_w@PAGE
	ldr	w9, [x9, _actual_w@PAGEOFF]
	mul	w8, w8, w9
	ldr	w9, [sp, #12]
	add	w8, w8, w9
	ldr	w9, [sp, #20]
	subs	w8, w8, w9
	cset	w8, lt
	tbnz	w8, #0, LBB1_14
	b	LBB1_13
LBB1_13:
	mov	w8, #0
	and	w8, w8, #0x1
	and	w8, w8, #0x1
	sturb	w8, [x29, #-1]
	b	LBB1_19
LBB1_14:                                ;   in Loop: Header=BB1_11 Depth=2
	ldur	x8, [x29, #-16]
	ldr	w9, [sp, #12]
	ldur	w11, [x29, #-20]
	sdiv	w10, w9, w11
	mul	w10, w10, w11
	subs	w9, w9, w10
	add	x8, x8, w9, sxtw
	ldrb	w8, [x8]
	ldrsw	x10, [sp, #16]
	adrp	x9, _screen@PAGE
	add	x9, x9, _screen@PAGEOFF
	add	x9, x9, x10, lsl #10
	ldrsw	x10, [sp, #12]
	add	x9, x9, x10
	strb	w8, [x9]
	b	LBB1_15
LBB1_15:                                ;   in Loop: Header=BB1_11 Depth=2
	ldr	w8, [sp, #12]
	add	w8, w8, #1
	str	w8, [sp, #12]
	b	LBB1_11
LBB1_16:                                ;   in Loop: Header=BB1_9 Depth=1
	b	LBB1_17
LBB1_17:                                ;   in Loop: Header=BB1_9 Depth=1
	ldr	w8, [sp, #16]
	add	w8, w8, #1
	str	w8, [sp, #16]
	b	LBB1_9
LBB1_18:
	mov	w8, #0
	and	w8, w8, #0x1
	and	w8, w8, #0x1
	sturb	w8, [x29, #-1]
	b	LBB1_19
LBB1_19:
	ldurb	w8, [x29, #-1]
	and	w0, w8, #0x1
	ldp	x29, x30, [sp, #48]             ; 16-byte Folded Reload
	add	sp, sp, #64
	ret
	.cfi_endproc
                                        ; -- End function
	.globl	_my                             ; -- Begin function my
	.p2align	2
_my:                                    ; @my
	.cfi_startproc
; %bb.0:
	sub	sp, sp, #32
	.cfi_def_cfa_offset 32
	stp	x29, x30, [sp, #16]             ; 16-byte Folded Spill
	add	x29, sp, #16
	.cfi_def_cfa w29, 16
	.cfi_offset w30, -8
	.cfi_offset w29, -16
	adrp	x8, _t@PAGE
	ldr	w8, [x8, _t@PAGEOFF]
	subs	w8, w8, #20
	cset	w8, ne
	tbnz	w8, #0, LBB2_2
	b	LBB2_1
LBB2_1:
	mov	w8, #1
	and	w8, w8, #0x1
	and	w8, w8, #0x1
	sturb	w8, [x29, #-1]
	b	LBB2_5
LBB2_2:
	bl	_blank
	adrp	x0, l_.str@PAGE
	add	x0, x0, l_.str@PAGEOFF
	bl	_fill_str
	adrp	x8, _t@PAGE
	ldr	w8, [x8, _t@PAGEOFF]
	subs	w8, w8, #10
	cset	w8, ge
	tbnz	w8, #0, LBB2_4
	b	LBB2_3
LBB2_3:
	mov	w8, #0
	and	w8, w8, #0x1
	and	w8, w8, #0x1
	sturb	w8, [x29, #-1]
	b	LBB2_5
LBB2_4:
	adrp	x0, _my_image_bits@PAGE
	add	x0, x0, _my_image_bits@PAGEOFF
	mov	w1, #1728
	mov	w2, #1504
	mov	w8, #0
	str	w8, [sp, #8]                    ; 4-byte Folded Spill
	and	w3, w8, #0x1
	bl	_draw_bmp
	ldr	w8, [sp, #8]                    ; 4-byte Folded Reload
	and	w8, w8, #0x1
	and	w8, w8, #0x1
	sturb	w8, [x29, #-1]
	b	LBB2_5
LBB2_5:
	ldurb	w8, [x29, #-1]
	and	w0, w8, #0x1
	ldp	x29, x30, [sp, #16]             ; 16-byte Folded Reload
	add	sp, sp, #32
	ret
	.cfi_endproc
                                        ; -- End function
	.globl	_fill_str                       ; -- Begin function fill_str
	.p2align	2
_fill_str:                              ; @fill_str
	.cfi_startproc
; %bb.0:
	sub	sp, sp, #48
	.cfi_def_cfa_offset 48
	stp	x29, x30, [sp, #32]             ; 16-byte Folded Spill
	add	x29, sp, #32
	.cfi_def_cfa w29, 16
	.cfi_offset w30, -8
	.cfi_offset w29, -16
	stur	x0, [x29, #-8]
	ldur	x0, [x29, #-8]
	bl	_strlen
	mov	x8, x0
	stur	w8, [x29, #-12]
	str	wzr, [sp, #16]
	b	LBB3_1
LBB3_1:                                 ; =>This Loop Header: Depth=1
                                        ;     Child Loop BB3_6 Depth 2
	ldr	w8, [sp, #16]
	adrp	x9, _actual_h@PAGE
	ldr	w9, [x9, _actual_h@PAGEOFF]
	subs	w8, w8, w9
	cset	w8, ge
	tbnz	w8, #0, LBB3_11
	b	LBB3_2
LBB3_2:                                 ;   in Loop: Header=BB3_1 Depth=1
	adrp	x8, _t@PAGE
	ldr	w8, [x8, _t@PAGEOFF]
	str	w8, [sp, #4]                    ; 4-byte Folded Spill
	ldr	w8, [sp, #16]
	ands	w8, w8, #0x1
	cset	w8, eq
	tbnz	w8, #0, LBB3_4
	b	LBB3_3
LBB3_3:                                 ;   in Loop: Header=BB3_1 Depth=1
	ldur	w8, [x29, #-12]
	mov	w9, #2
	sdiv	w8, w8, w9
	str	w8, [sp]                        ; 4-byte Folded Spill
	b	LBB3_5
LBB3_4:                                 ;   in Loop: Header=BB3_1 Depth=1
	mov	w8, #0
	str	w8, [sp]                        ; 4-byte Folded Spill
	b	LBB3_5
LBB3_5:                                 ;   in Loop: Header=BB3_1 Depth=1
	ldr	w8, [sp, #4]                    ; 4-byte Folded Reload
	ldr	w9, [sp]                        ; 4-byte Folded Reload
	add	w8, w8, w9
	str	w8, [sp, #12]
	str	wzr, [sp, #8]
	b	LBB3_6
LBB3_6:                                 ;   Parent Loop BB3_1 Depth=1
                                        ; =>  This Inner Loop Header: Depth=2
	ldr	w8, [sp, #8]
	adrp	x9, _actual_w@PAGE
	ldr	w9, [x9, _actual_w@PAGEOFF]
	subs	w8, w8, w9
	cset	w8, ge
	tbnz	w8, #0, LBB3_9
	b	LBB3_7
LBB3_7:                                 ;   in Loop: Header=BB3_6 Depth=2
	ldur	x8, [x29, #-8]
	ldr	w9, [sp, #8]
	ldr	w10, [sp, #12]
	add	w9, w9, w10
	ldur	w11, [x29, #-12]
	sdiv	w10, w9, w11
	mul	w10, w10, w11
	subs	w9, w9, w10
	add	x8, x8, w9, sxtw
	ldrb	w8, [x8]
	ldrsw	x10, [sp, #16]
	adrp	x9, _screen@PAGE
	add	x9, x9, _screen@PAGEOFF
	add	x9, x9, x10, lsl #10
	ldrsw	x10, [sp, #8]
	add	x9, x9, x10
	strb	w8, [x9]
	b	LBB3_8
LBB3_8:                                 ;   in Loop: Header=BB3_6 Depth=2
	ldr	w8, [sp, #8]
	add	w8, w8, #1
	str	w8, [sp, #8]
	b	LBB3_6
LBB3_9:                                 ;   in Loop: Header=BB3_1 Depth=1
	b	LBB3_10
LBB3_10:                                ;   in Loop: Header=BB3_1 Depth=1
	ldr	w8, [sp, #16]
	add	w8, w8, #1
	str	w8, [sp, #16]
	b	LBB3_1
LBB3_11:
	ldp	x29, x30, [sp, #32]             ; 16-byte Folded Reload
	add	sp, sp, #48
	ret
	.cfi_endproc
                                        ; -- End function
	.globl	_draw_bmp                       ; -- Begin function draw_bmp
	.p2align	2
_draw_bmp:                              ; @draw_bmp
	.cfi_startproc
; %bb.0:
	sub	sp, sp, #192
	.cfi_def_cfa_offset 192
	stp	x29, x30, [sp, #176]            ; 16-byte Folded Spill
	add	x29, sp, #176
	.cfi_def_cfa w29, 16
	.cfi_offset w30, -8
	.cfi_offset w29, -16
	stur	x0, [x29, #-8]
	stur	w1, [x29, #-12]
	stur	w2, [x29, #-16]
	mov	w8, #1
	and	w8, w3, w8
	sturb	w8, [x29, #-17]
	adrp	x8, l_.str.6@PAGE
	add	x8, x8, l_.str.6@PAGEOFF
	stur	x8, [x29, #-32]
	ldur	x0, [x29, #-32]
	bl	_strlen
	mov	x8, x0
	stur	w8, [x29, #-36]
	adrp	x8, _actual_h@PAGE
	str	x8, [sp, #32]                   ; 8-byte Folded Spill
	ldr	w8, [x8, _actual_h@PAGEOFF]
	adrp	x9, _actual_w@PAGE
	str	x9, [sp, #40]                   ; 8-byte Folded Spill
	ldr	w9, [x9, _actual_w@PAGEOFF]
	mul	w9, w8, w9
                                        ; implicit-def: $x8
	mov	x8, x9
	sxtw	x8, w8
	lsl	x0, x8, #2
	bl	_malloc
	ldr	x8, [sp, #32]                   ; 8-byte Folded Reload
	ldr	x9, [sp, #40]                   ; 8-byte Folded Reload
	stur	x0, [x29, #-48]
	ldur	x0, [x29, #-48]
	ldr	w8, [x8, _actual_h@PAGEOFF]
	ldr	w9, [x9, _actual_w@PAGEOFF]
	mul	w9, w8, w9
                                        ; implicit-def: $x8
	mov	x8, x9
	sxtw	x8, w8
	lsl	x2, x8, #2
	mov	w1, #0
	mov	x3, #-1
	bl	___memset_chk
	ldr	x9, [sp, #32]                   ; 8-byte Folded Reload
	ldr	x10, [sp, #40]                  ; 8-byte Folded Reload
	ldur	w8, [x29, #-12]
	ldr	w9, [x9, _actual_h@PAGEOFF]
	sdiv	w8, w8, w9
	ldur	w9, [x29, #-16]
	ldr	w10, [x10, _actual_w@PAGEOFF]
	mov	w11, #2
	sdiv	w10, w10, w11
	sdiv	w9, w9, w10
	subs	w8, w8, w9
	cset	w8, le
	tbnz	w8, #0, LBB4_2
	b	LBB4_1
LBB4_1:
	ldur	w8, [x29, #-12]
	adrp	x9, _actual_h@PAGE
	ldr	w9, [x9, _actual_h@PAGEOFF]
	sdiv	w8, w8, w9
	str	w8, [sp, #28]                   ; 4-byte Folded Spill
	b	LBB4_3
LBB4_2:
	ldur	w8, [x29, #-16]
	adrp	x9, _actual_w@PAGE
	ldr	w9, [x9, _actual_w@PAGEOFF]
	mov	w10, #2
	sdiv	w9, w9, w10
	sdiv	w8, w8, w9
	str	w8, [sp, #28]                   ; 4-byte Folded Spill
	b	LBB4_3
LBB4_3:
	ldr	w8, [sp, #28]                   ; 4-byte Folded Reload
	stur	w8, [x29, #-52]
	ldur	w8, [x29, #-52]
	stur	w8, [x29, #-56]
	ldur	w8, [x29, #-52]
	mov	w9, #2
	sdiv	w8, w8, w9
	stur	w8, [x29, #-60]
	stur	wzr, [x29, #-64]
	b	LBB4_4
LBB4_4:                                 ; =>This Loop Header: Depth=1
                                        ;     Child Loop BB4_6 Depth 2
	ldur	w8, [x29, #-64]
	ldur	w9, [x29, #-12]
	subs	w8, w8, w9
	cset	w8, ge
	tbnz	w8, #0, LBB4_13
	b	LBB4_5
LBB4_5:                                 ;   in Loop: Header=BB4_4 Depth=1
	ldur	x8, [x29, #-8]
	ldur	w9, [x29, #-64]
	ldur	w10, [x29, #-16]
	mov	w11, #8
	sdiv	w10, w10, w11
	mul	w9, w9, w10
	add	x8, x8, w9, sxtw
	stur	x8, [x29, #-72]
	ldur	x8, [x29, #-48]
	ldur	w9, [x29, #-64]
	ldur	w10, [x29, #-56]
	sdiv	w9, w9, w10
	adrp	x10, _actual_w@PAGE
	ldr	w10, [x10, _actual_w@PAGEOFF]
	mul	w9, w9, w10
	add	x8, x8, w9, sxtw #2
	stur	x8, [x29, #-80]
	stur	wzr, [x29, #-84]
	b	LBB4_6
LBB4_6:                                 ;   Parent Loop BB4_4 Depth=1
                                        ; =>  This Inner Loop Header: Depth=2
	ldur	w8, [x29, #-84]
	ldur	w9, [x29, #-16]
	subs	w8, w8, w9
	cset	w8, ge
	tbnz	w8, #0, LBB4_11
	b	LBB4_7
LBB4_7:                                 ;   in Loop: Header=BB4_6 Depth=2
	ldur	x8, [x29, #-72]
	ldur	w9, [x29, #-84]
	mov	w11, #8
	sdiv	w9, w9, w11
	ldrsb	w8, [x8, w9, sxtw]
	ldur	w9, [x29, #-84]
	sdiv	w10, w9, w11
	mul	w10, w10, w11
	subs	w9, w9, w10
	asr	w8, w8, w9
	ands	w8, w8, #0x1
	cset	w8, ne
	mov	w9, #1
	and	w8, w8, w9
	sturb	w8, [x29, #-85]
	ldurb	w8, [x29, #-17]
	tbz	w8, #0, LBB4_9
	b	LBB4_8
LBB4_8:                                 ;   in Loop: Header=BB4_6 Depth=2
	ldurb	w8, [x29, #-85]
	mov	w9, #1
	eor	w8, w8, #0x1
	and	w8, w8, #0x1
	ands	w8, w8, #0x1
	cset	w8, ne
	and	w8, w8, w9
	sturb	w8, [x29, #-85]
	b	LBB4_9
LBB4_9:                                 ;   in Loop: Header=BB4_6 Depth=2
	ldurb	w8, [x29, #-85]
	and	w10, w8, #0x1
	ldur	x8, [x29, #-80]
	ldur	w9, [x29, #-84]
	ldur	w11, [x29, #-60]
	sdiv	w9, w9, w11
	add	x9, x8, w9, sxtw #2
	ldr	w8, [x9]
	add	w8, w8, w10
	str	w8, [x9]
	b	LBB4_10
LBB4_10:                                ;   in Loop: Header=BB4_6 Depth=2
	ldur	w8, [x29, #-84]
	add	w8, w8, #1
	stur	w8, [x29, #-84]
	b	LBB4_6
LBB4_11:                                ;   in Loop: Header=BB4_4 Depth=1
	b	LBB4_12
LBB4_12:                                ;   in Loop: Header=BB4_4 Depth=1
	ldur	w8, [x29, #-64]
	add	w8, w8, #1
	stur	w8, [x29, #-64]
	b	LBB4_4
LBB4_13:
	str	wzr, [sp, #84]
	str	wzr, [sp, #80]
	b	LBB4_14
LBB4_14:                                ; =>This Inner Loop Header: Depth=1
	ldr	w8, [sp, #80]
	adrp	x9, _actual_h@PAGE
	ldr	w9, [x9, _actual_h@PAGEOFF]
	adrp	x10, _actual_w@PAGE
	ldr	w10, [x10, _actual_w@PAGEOFF]
	mul	w9, w9, w10
	subs	w8, w8, w9
	cset	w8, ge
	tbnz	w8, #0, LBB4_20
	b	LBB4_15
LBB4_15:                                ;   in Loop: Header=BB4_14 Depth=1
	ldr	w8, [sp, #84]
	ldur	x9, [x29, #-48]
	ldrsw	x10, [sp, #80]
	ldr	w9, [x9, x10, lsl #2]
	subs	w8, w8, w9
	cset	w8, le
	tbnz	w8, #0, LBB4_17
	b	LBB4_16
LBB4_16:                                ;   in Loop: Header=BB4_14 Depth=1
	ldr	w8, [sp, #84]
	str	w8, [sp, #24]                   ; 4-byte Folded Spill
	b	LBB4_18
LBB4_17:                                ;   in Loop: Header=BB4_14 Depth=1
	ldur	x8, [x29, #-48]
	ldrsw	x9, [sp, #80]
	ldr	w8, [x8, x9, lsl #2]
	str	w8, [sp, #24]                   ; 4-byte Folded Spill
	b	LBB4_18
LBB4_18:                                ;   in Loop: Header=BB4_14 Depth=1
	ldr	w8, [sp, #24]                   ; 4-byte Folded Reload
	str	w8, [sp, #84]
	b	LBB4_19
LBB4_19:                                ;   in Loop: Header=BB4_14 Depth=1
	ldr	w8, [sp, #80]
	add	w8, w8, #1
	str	w8, [sp, #80]
	b	LBB4_14
LBB4_20:
	str	wzr, [sp, #76]
	ldur	w8, [x29, #-12]
	ldur	w9, [x29, #-56]
	sdiv	w8, w8, w9
	str	w8, [sp, #72]
	str	wzr, [sp, #68]
	ldur	w8, [x29, #-16]
	ldur	w9, [x29, #-60]
	sdiv	w8, w8, w9
	str	w8, [sp, #64]
	ldr	w8, [sp, #76]
	str	w8, [sp, #60]
	b	LBB4_21
LBB4_21:                                ; =>This Loop Header: Depth=1
                                        ;     Child Loop BB4_23 Depth 2
	ldr	w8, [sp, #60]
	ldr	w9, [sp, #72]
	subs	w8, w8, w9
	cset	w8, ge
	tbnz	w8, #0, LBB4_37
	b	LBB4_22
LBB4_22:                                ;   in Loop: Header=BB4_21 Depth=1
	ldr	w8, [sp, #68]
	str	w8, [sp, #56]
	b	LBB4_23
LBB4_23:                                ;   Parent Loop BB4_21 Depth=1
                                        ; =>  This Inner Loop Header: Depth=2
	ldr	w8, [sp, #56]
	ldr	w9, [sp, #64]
	subs	w8, w8, w9
	cset	w8, ge
	tbnz	w8, #0, LBB4_35
	b	LBB4_24
LBB4_24:                                ;   in Loop: Header=BB4_23 Depth=2
	ldur	s0, [x29, #-36]
	scvtf	s0, s0
	ldur	x8, [x29, #-48]
	ldr	w9, [sp, #60]
	adrp	x10, _actual_w@PAGE
	ldr	w10, [x10, _actual_w@PAGEOFF]
	mul	w9, w9, w10
	ldr	w10, [sp, #56]
	add	w9, w9, w10
	ldr	s1, [x8, w9, sxtw #2]
	scvtf	s1, s1
	fmul	s0, s0, s1
	ldr	s1, [sp, #84]
	scvtf	s1, s1
	fdiv	s0, s0, s1
	fcvtzs	w8, s0
	str	w8, [sp, #52]
	ldr	w8, [sp, #52]
	ldur	w9, [x29, #-36]
	subs	w9, w9, #1
	subs	w8, w8, w9
	cset	w8, ge
	tbnz	w8, #0, LBB4_26
	b	LBB4_25
LBB4_25:                                ;   in Loop: Header=BB4_23 Depth=2
	ldr	w8, [sp, #52]
	str	w8, [sp, #20]                   ; 4-byte Folded Spill
	b	LBB4_27
LBB4_26:                                ;   in Loop: Header=BB4_23 Depth=2
	ldur	w8, [x29, #-36]
	subs	w8, w8, #1
	str	w8, [sp, #20]                   ; 4-byte Folded Spill
	b	LBB4_27
LBB4_27:                                ;   in Loop: Header=BB4_23 Depth=2
	ldr	w8, [sp, #20]                   ; 4-byte Folded Reload
	subs	w8, w8, #0
	cset	w8, le
	tbnz	w8, #0, LBB4_32
	b	LBB4_28
LBB4_28:                                ;   in Loop: Header=BB4_23 Depth=2
	ldr	w8, [sp, #52]
	ldur	w9, [x29, #-36]
	subs	w9, w9, #1
	subs	w8, w8, w9
	cset	w8, ge
	tbnz	w8, #0, LBB4_30
	b	LBB4_29
LBB4_29:                                ;   in Loop: Header=BB4_23 Depth=2
	ldr	w8, [sp, #52]
	str	w8, [sp, #16]                   ; 4-byte Folded Spill
	b	LBB4_31
LBB4_30:                                ;   in Loop: Header=BB4_23 Depth=2
	ldur	w8, [x29, #-36]
	subs	w8, w8, #1
	str	w8, [sp, #16]                   ; 4-byte Folded Spill
	b	LBB4_31
LBB4_31:                                ;   in Loop: Header=BB4_23 Depth=2
	ldr	w8, [sp, #16]                   ; 4-byte Folded Reload
	str	w8, [sp, #12]                   ; 4-byte Folded Spill
	b	LBB4_33
LBB4_32:                                ;   in Loop: Header=BB4_23 Depth=2
	mov	w8, #0
	str	w8, [sp, #12]                   ; 4-byte Folded Spill
	b	LBB4_33
LBB4_33:                                ;   in Loop: Header=BB4_23 Depth=2
	ldr	w8, [sp, #12]                   ; 4-byte Folded Reload
	str	w8, [sp, #52]
	ldur	x8, [x29, #-32]
	ldrsw	x9, [sp, #52]
	add	x8, x8, x9
	ldrb	w8, [x8]
	ldrsw	x10, [sp, #60]
	adrp	x9, _screen@PAGE
	add	x9, x9, _screen@PAGEOFF
	add	x9, x9, x10, lsl #10
	ldrsw	x10, [sp, #56]
	add	x9, x9, x10
	strb	w8, [x9]
	b	LBB4_34
LBB4_34:                                ;   in Loop: Header=BB4_23 Depth=2
	ldr	w8, [sp, #56]
	add	w8, w8, #1
	str	w8, [sp, #56]
	b	LBB4_23
LBB4_35:                                ;   in Loop: Header=BB4_21 Depth=1
	b	LBB4_36
LBB4_36:                                ;   in Loop: Header=BB4_21 Depth=1
	ldr	w8, [sp, #60]
	add	w8, w8, #1
	str	w8, [sp, #60]
	b	LBB4_21
LBB4_37:
	ldur	x0, [x29, #-48]
	bl	_free
	ldp	x29, x30, [sp, #176]            ; 16-byte Folded Reload
	add	sp, sp, #192
	ret
	.cfi_endproc
                                        ; -- End function
	.globl	_my_to_nicolas                  ; -- Begin function my_to_nicolas
	.p2align	2
_my_to_nicolas:                         ; @my_to_nicolas
	.cfi_startproc
; %bb.0:
	sub	sp, sp, #64
	.cfi_def_cfa_offset 64
	stp	x29, x30, [sp, #48]             ; 16-byte Folded Spill
	add	x29, sp, #48
	.cfi_def_cfa w29, 16
	.cfi_offset w30, -8
	.cfi_offset w29, -16
	adrp	x8, ___stack_chk_guard@GOTPAGE
	ldr	x8, [x8, ___stack_chk_guard@GOTPAGEOFF]
	ldr	x8, [x8]
	stur	x8, [x29, #-8]
	adrp	x8, _t@PAGE
	ldr	w8, [x8, _t@PAGEOFF]
	subs	w8, w8, #20
	cset	w8, lt
	tbnz	w8, #0, LBB5_2
	b	LBB5_1
LBB5_1:
	mov	w8, #1
	adrp	x9, _speed@PAGE
	str	w8, [x9, _speed@PAGEOFF]
	bl	_blank
	mov	w8, #1
	and	w8, w8, #0x1
	and	w8, w8, #0x1
	sturb	w8, [x29, #-18]
	b	LBB5_7
LBB5_2:
	adrp	x9, _speed@PAGE
	mov	w8, #4
	str	w8, [x9, _speed@PAGEOFF]
	adrp	x8, l_.str.1@PAGE
	add	x8, x8, l_.str.1@PAGEOFF
	str	x8, [sp, #16]
	adrp	x8, l_.str.2@PAGE
	add	x8, x8, l_.str.2@PAGEOFF
	str	x8, [sp, #8]
	str	wzr, [sp, #4]
	b	LBB5_3
LBB5_3:                                 ; =>This Inner Loop Header: Depth=1
	ldr	w8, [sp, #4]
	subs	w8, w8, #9
	cset	w8, ge
	tbnz	w8, #0, LBB5_6
	b	LBB5_4
LBB5_4:                                 ;   in Loop: Header=BB5_3 Depth=1
	ldrsw	x9, [sp, #4]
	sub	x8, x29, #17
	add	x9, x8, x9
	mov	w8, #1
	strb	w8, [x9]
	b	LBB5_5
LBB5_5:                                 ;   in Loop: Header=BB5_3 Depth=1
	ldr	w8, [sp, #4]
	add	w8, w8, #1
	str	w8, [sp, #4]
	b	LBB5_3
LBB5_6:
	ldr	x0, [sp, #16]
	ldr	x1, [sp, #8]
	sub	x2, x29, #17
	bl	_corrupt
	mov	w8, #0
	and	w8, w8, #0x1
	and	w8, w8, #0x1
	sturb	w8, [x29, #-18]
	b	LBB5_7
LBB5_7:
	ldurb	w8, [x29, #-18]
	str	w8, [sp]                        ; 4-byte Folded Spill
	ldur	x9, [x29, #-8]
	adrp	x8, ___stack_chk_guard@GOTPAGE
	ldr	x8, [x8, ___stack_chk_guard@GOTPAGEOFF]
	ldr	x8, [x8]
	subs	x8, x8, x9
	cset	w8, eq
	tbnz	w8, #0, LBB5_9
	b	LBB5_8
LBB5_8:
	bl	___stack_chk_fail
LBB5_9:
	ldr	w8, [sp]                        ; 4-byte Folded Reload
	and	w0, w8, #0x1
	ldp	x29, x30, [sp, #48]             ; 16-byte Folded Reload
	add	sp, sp, #64
	ret
	.cfi_endproc
                                        ; -- End function
	.globl	_corrupt                        ; -- Begin function corrupt
	.p2align	2
_corrupt:                               ; @corrupt
	.cfi_startproc
; %bb.0:
	sub	sp, sp, #96
	.cfi_def_cfa_offset 96
	stp	x29, x30, [sp, #80]             ; 16-byte Folded Spill
	add	x29, sp, #80
	.cfi_def_cfa w29, 16
	.cfi_offset w30, -8
	.cfi_offset w29, -16
	stur	x0, [x29, #-16]
	stur	x1, [x29, #-24]
	stur	x2, [x29, #-32]
	ldur	x0, [x29, #-16]
	bl	_strlen
	mov	x8, x0
	stur	w8, [x29, #-36]
	ldur	x0, [x29, #-24]
	bl	_strlen
	mov	x8, x0
	str	w8, [sp, #40]
	strb	wzr, [sp, #39]
	adrp	x8, _actual_h@PAGE
	ldr	w1, [x8, _actual_h@PAGEOFF]
	mov	w0, #0
	str	w0, [sp]                        ; 4-byte Folded Spill
	bl	_gamble
	mov	x8, x0
	ldr	w0, [sp]                        ; 4-byte Folded Reload
	str	w8, [sp, #32]
	adrp	x8, _actual_w@PAGE
	ldr	w1, [x8, _actual_w@PAGEOFF]
	bl	_gamble
	str	w0, [sp, #28]
	b	LBB6_1
LBB6_1:                                 ; =>This Loop Header: Depth=1
                                        ;     Child Loop BB6_3 Depth 2
	ldr	w8, [sp, #32]
	adrp	x9, _actual_h@PAGE
	ldr	w9, [x9, _actual_h@PAGEOFF]
	subs	w8, w8, w9
	cset	w8, ge
	tbnz	w8, #0, LBB6_12
	b	LBB6_2
LBB6_2:                                 ;   in Loop: Header=BB6_1 Depth=1
	b	LBB6_3
LBB6_3:                                 ;   Parent Loop BB6_1 Depth=1
                                        ; =>  This Inner Loop Header: Depth=2
	ldr	w8, [sp, #28]
	adrp	x9, _actual_w@PAGE
	ldr	w9, [x9, _actual_w@PAGEOFF]
	subs	w8, w8, w9
	cset	w8, ge
	tbnz	w8, #0, LBB6_8
	b	LBB6_4
LBB6_4:                                 ;   in Loop: Header=BB6_3 Depth=2
	ldrsw	x9, [sp, #32]
	adrp	x8, _screen@PAGE
	add	x8, x8, _screen@PAGEOFF
	add	x8, x8, x9, lsl #10
	ldrsw	x9, [sp, #28]
	add	x0, x8, x9
	ldur	x1, [x29, #-16]
	ldursw	x2, [x29, #-36]
	bl	_strncmp
	subs	w8, w0, #0
	cset	w8, eq
	tbnz	w8, #0, LBB6_6
	b	LBB6_5
LBB6_5:                                 ;   in Loop: Header=BB6_3 Depth=2
	b	LBB6_7
LBB6_6:                                 ;   in Loop: Header=BB6_1 Depth=1
	mov	w8, #1
	strb	w8, [sp, #39]
	b	LBB6_8
LBB6_7:                                 ;   in Loop: Header=BB6_3 Depth=2
	ldr	w8, [sp, #28]
	add	w8, w8, #1
	str	w8, [sp, #28]
	b	LBB6_3
LBB6_8:                                 ;   in Loop: Header=BB6_1 Depth=1
	ldrb	w8, [sp, #39]
	tbz	w8, #0, LBB6_10
	b	LBB6_9
LBB6_9:
	b	LBB6_12
LBB6_10:                                ;   in Loop: Header=BB6_1 Depth=1
	b	LBB6_11
LBB6_11:                                ;   in Loop: Header=BB6_1 Depth=1
	ldr	w8, [sp, #32]
	add	w8, w8, #1
	str	w8, [sp, #32]
	b	LBB6_1
LBB6_12:
	ldrb	w8, [sp, #39]
	tbnz	w8, #0, LBB6_14
	b	LBB6_13
LBB6_13:
	mov	w8, #0
	and	w8, w8, #0x1
	and	w8, w8, #0x1
	sturb	w8, [x29, #-1]
	b	LBB6_19
LBB6_14:
	ldrsw	x9, [sp, #32]
	adrp	x8, _screen@PAGE
	add	x8, x8, _screen@PAGEOFF
	add	x8, x8, x9, lsl #10
	ldrsw	x9, [sp, #28]
	add	x8, x8, x9
	str	x8, [sp, #16]
	ldrsw	x9, [sp, #32]
	adrp	x8, _colors@PAGE
	add	x8, x8, _colors@PAGEOFF
	add	x8, x8, x9, lsl #10
	ldrsw	x9, [sp, #28]
	add	x8, x8, x9
	str	x8, [sp, #8]
	str	wzr, [sp, #4]
	b	LBB6_15
LBB6_15:                                ; =>This Inner Loop Header: Depth=1
	ldr	w8, [sp, #4]
	ldr	w9, [sp, #40]
	subs	w8, w8, w9
	cset	w8, ge
	tbnz	w8, #0, LBB6_18
	b	LBB6_16
LBB6_16:                                ;   in Loop: Header=BB6_15 Depth=1
	ldur	x8, [x29, #-24]
	ldrsw	x9, [sp, #4]
	add	x8, x8, x9
	ldrb	w8, [x8]
	ldr	x9, [sp, #16]
	add	x10, x9, #1
	str	x10, [sp, #16]
	strb	w8, [x9]
	ldur	x8, [x29, #-32]
	ldrsw	x9, [sp, #4]
	add	x8, x8, x9
	ldrb	w8, [x8]
	ldr	x9, [sp, #8]
	add	x10, x9, #1
	str	x10, [sp, #8]
	strb	w8, [x9]
	b	LBB6_17
LBB6_17:                                ;   in Loop: Header=BB6_15 Depth=1
	ldr	w8, [sp, #4]
	add	w8, w8, #1
	str	w8, [sp, #4]
	b	LBB6_15
LBB6_18:
	mov	w8, #1
	and	w8, w8, #0x1
	and	w8, w8, #0x1
	sturb	w8, [x29, #-1]
	b	LBB6_19
LBB6_19:
	ldurb	w8, [x29, #-1]
	and	w0, w8, #0x1
	ldp	x29, x30, [sp, #80]             ; 16-byte Folded Reload
	add	sp, sp, #96
	ret
	.cfi_endproc
                                        ; -- End function
	.globl	_nicolas                        ; -- Begin function nicolas
	.p2align	2
_nicolas:                               ; @nicolas
	.cfi_startproc
; %bb.0:
	sub	sp, sp, #32
	.cfi_def_cfa_offset 32
	stp	x29, x30, [sp, #16]             ; 16-byte Folded Spill
	add	x29, sp, #16
	.cfi_def_cfa w29, 16
	.cfi_offset w30, -8
	.cfi_offset w29, -16
	adrp	x8, _t@PAGE
	ldr	w8, [x8, _t@PAGEOFF]
	subs	w8, w8, #20
	cset	w8, ne
	tbnz	w8, #0, LBB7_2
	b	LBB7_1
LBB7_1:
	mov	w8, #1
	and	w8, w8, #0x1
	and	w8, w8, #0x1
	sturb	w8, [x29, #-1]
	b	LBB7_5
LBB7_2:
	bl	_blank
	adrp	x0, l_.str.3@PAGE
	add	x0, x0, l_.str.3@PAGEOFF
	bl	_fill_str
	adrp	x8, _t@PAGE
	ldr	w8, [x8, _t@PAGEOFF]
	subs	w8, w8, #10
	cset	w8, ge
	tbnz	w8, #0, LBB7_4
	b	LBB7_3
LBB7_3:
	mov	w8, #0
	and	w8, w8, #0x1
	and	w8, w8, #0x1
	sturb	w8, [x29, #-1]
	b	LBB7_5
LBB7_4:
	adrp	x0, _smoke_image_bits@PAGE
	add	x0, x0, _smoke_image_bits@PAGEOFF
	mov	w1, #1328
	mov	w2, #1176
	mov	w8, #1
	and	w3, w8, #0x1
	bl	_draw_bmp
	mov	w8, #0
	and	w8, w8, #0x1
	and	w8, w8, #0x1
	sturb	w8, [x29, #-1]
	b	LBB7_5
LBB7_5:
	ldurb	w8, [x29, #-1]
	and	w0, w8, #0x1
	ldp	x29, x30, [sp, #16]             ; 16-byte Folded Reload
	add	sp, sp, #32
	ret
	.cfi_endproc
                                        ; -- End function
	.globl	_nicolas_to_prince              ; -- Begin function nicolas_to_prince
	.p2align	2
_nicolas_to_prince:                     ; @nicolas_to_prince
	.cfi_startproc
; %bb.0:
	sub	sp, sp, #48
	.cfi_def_cfa_offset 48
	stp	x29, x30, [sp, #32]             ; 16-byte Folded Spill
	add	x29, sp, #32
	.cfi_def_cfa w29, 16
	.cfi_offset w30, -8
	.cfi_offset w29, -16
	adrp	x8, _t@PAGE
	ldr	w8, [x8, _t@PAGEOFF]
	subs	w8, w8, #15
	cset	w8, lt
	tbnz	w8, #0, LBB8_2
	b	LBB8_1
LBB8_1:
	mov	w8, #1
	and	w8, w8, #0x1
	and	w8, w8, #0x1
	sturb	w8, [x29, #-1]
	b	LBB8_9
LBB8_2:
	bl	_blank
	adrp	x8, _t@PAGE
	ldr	w8, [x8, _t@PAGEOFF]
	subs	w8, w8, #5
	cset	w8, ge
	tbnz	w8, #0, LBB8_4
	b	LBB8_3
LBB8_3:
	mov	w8, #0
	and	w8, w8, #0x1
	and	w8, w8, #0x1
	sturb	w8, [x29, #-1]
	b	LBB8_9
LBB8_4:
	adrp	x8, l_.str.4@PAGE
	add	x8, x8, l_.str.4@PAGEOFF
	str	x8, [sp, #16]
	mov	x0, #8
	bl	_malloc
	str	x0, [sp, #8]
	ldr	x0, [sp, #8]
	ldr	x1, [sp, #16]
	mov	x2, #-1
	bl	___strcpy_chk
	str	wzr, [sp, #4]
	b	LBB8_5
LBB8_5:                                 ; =>This Inner Loop Header: Depth=1
	ldr	w8, [sp, #4]
	adrp	x9, _t@PAGE
	ldr	w9, [x9, _t@PAGEOFF]
	and	w9, w9, #0x3
	subs	w8, w8, w9
	cset	w8, ge
	tbnz	w8, #0, LBB8_8
	b	LBB8_6
LBB8_6:                                 ;   in Loop: Header=BB8_5 Depth=1
	ldr	x8, [sp, #8]
	ldr	w9, [sp, #4]
	add	w9, w9, #7
	add	x9, x8, w9, sxtw
	mov	w8, #46
	strb	w8, [x9]
	b	LBB8_7
LBB8_7:                                 ;   in Loop: Header=BB8_5 Depth=1
	ldr	w8, [sp, #4]
	add	w8, w8, #1
	str	w8, [sp, #4]
	b	LBB8_5
LBB8_8:
	ldr	x0, [sp, #8]
	bl	_center_print
	mov	w8, #0
	and	w8, w8, #0x1
	and	w8, w8, #0x1
	sturb	w8, [x29, #-1]
	b	LBB8_9
LBB8_9:
	ldurb	w8, [x29, #-1]
	and	w0, w8, #0x1
	ldp	x29, x30, [sp, #32]             ; 16-byte Folded Reload
	add	sp, sp, #48
	ret
	.cfi_endproc
                                        ; -- End function
	.globl	_center_print                   ; -- Begin function center_print
	.p2align	2
_center_print:                          ; @center_print
	.cfi_startproc
; %bb.0:
	sub	sp, sp, #48
	.cfi_def_cfa_offset 48
	stp	x29, x30, [sp, #32]             ; 16-byte Folded Spill
	add	x29, sp, #32
	.cfi_def_cfa w29, 16
	.cfi_offset w30, -8
	.cfi_offset w29, -16
	stur	x0, [x29, #-8]
	ldur	x0, [x29, #-8]
	bl	_strlen
	mov	x8, x0
	stur	w8, [x29, #-12]
	adrp	x8, _actual_h@PAGE
	ldr	w8, [x8, _actual_h@PAGEOFF]
	mov	w11, #2
	sdiv	w8, w8, w11
	str	w8, [sp, #16]
	adrp	x9, _actual_w@PAGE
	ldr	w8, [x9, _actual_w@PAGEOFF]
	sdiv	w8, w8, w11
	ldur	w10, [x29, #-12]
	sdiv	w10, w10, w11
	subs	w8, w8, w10
	str	w8, [sp, #12]
	ldr	w8, [x9, _actual_w@PAGEOFF]
	sdiv	w8, w8, w11
	ldur	w10, [x29, #-12]
	sdiv	w10, w10, w11
	add	w8, w8, w10
	ldr	w9, [x9, _actual_w@PAGEOFF]
	ldur	w10, [x29, #-12]
	eor	w9, w9, w10
	and	w9, w9, #0x1
	add	w8, w8, w9
	str	w8, [sp, #8]
	str	wzr, [sp, #4]
	ldr	w8, [sp, #12]
	str	w8, [sp]
	b	LBB9_1
LBB9_1:                                 ; =>This Inner Loop Header: Depth=1
	ldr	w8, [sp]
	ldr	w9, [sp, #8]
	subs	w8, w8, w9
	cset	w8, ge
	tbnz	w8, #0, LBB9_4
	b	LBB9_2
LBB9_2:                                 ;   in Loop: Header=BB9_1 Depth=1
	ldur	x8, [x29, #-8]
	ldrsw	x9, [sp, #4]
	mov	x10, x9
	add	w10, w10, #1
	str	w10, [sp, #4]
	add	x8, x8, x9
	ldrb	w8, [x8]
	ldrsw	x10, [sp, #16]
	adrp	x9, _screen@PAGE
	add	x9, x9, _screen@PAGEOFF
	add	x9, x9, x10, lsl #10
	ldrsw	x10, [sp]
	add	x9, x9, x10
	strb	w8, [x9]
	b	LBB9_3
LBB9_3:                                 ;   in Loop: Header=BB9_1 Depth=1
	ldr	w8, [sp]
	add	w8, w8, #1
	str	w8, [sp]
	b	LBB9_1
LBB9_4:
	ldp	x29, x30, [sp, #32]             ; 16-byte Folded Reload
	add	sp, sp, #48
	ret
	.cfi_endproc
                                        ; -- End function
	.globl	_prince                         ; -- Begin function prince
	.p2align	2
_prince:                                ; @prince
	.cfi_startproc
; %bb.0:
	sub	sp, sp, #32
	.cfi_def_cfa_offset 32
	stp	x29, x30, [sp, #16]             ; 16-byte Folded Spill
	add	x29, sp, #16
	.cfi_def_cfa w29, 16
	.cfi_offset w30, -8
	.cfi_offset w29, -16
	adrp	x0, _star_image_bits@PAGE
	add	x0, x0, _star_image_bits@PAGEOFF
	mov	w1, #1320
	mov	w2, #1360
	mov	w8, #0
	stur	w8, [x29, #-4]                  ; 4-byte Folded Spill
	and	w3, w8, #0x1
	bl	_draw_bmp
	ldur	w8, [x29, #-4]                  ; 4-byte Folded Reload
	and	w0, w8, #0x1
	ldp	x29, x30, [sp, #16]             ; 16-byte Folded Reload
	add	sp, sp, #32
	ret
	.cfi_endproc
                                        ; -- End function
	.globl	_afterword                      ; -- Begin function afterword
	.p2align	2
_afterword:                             ; @afterword
	.cfi_startproc
; %bb.0:
	sub	sp, sp, #32
	.cfi_def_cfa_offset 32
	stp	x29, x30, [sp, #16]             ; 16-byte Folded Spill
	add	x29, sp, #16
	.cfi_def_cfa w29, 16
	.cfi_offset w30, -8
	.cfi_offset w29, -16
	bl	_blank
	adrp	x8, l_.str.5@PAGE
	add	x8, x8, l_.str.5@PAGEOFF
	str	x8, [sp, #8]
	ldr	x0, [sp, #8]
	bl	_center_print
	mov	w8, #0
	and	w0, w8, #0x1
	ldp	x29, x30, [sp, #16]             ; 16-byte Folded Reload
	add	sp, sp, #32
	ret
	.cfi_endproc
                                        ; -- End function
	.globl	_draw                           ; -- Begin function draw
	.p2align	2
_draw:                                  ; @draw
	.cfi_startproc
; %bb.0:
	stp	x29, x30, [sp, #-16]!           ; 16-byte Folded Spill
	.cfi_def_cfa_offset 16
	mov	x29, sp
	.cfi_def_cfa w29, 16
	.cfi_offset w30, -8
	.cfi_offset w29, -16
	adrp	x8, _active_drawer@PAGE
	ldrsw	x9, [x8, _active_drawer@PAGEOFF]
	adrp	x8, _drawers@PAGE
	add	x8, x8, _drawers@PAGEOFF
	ldr	x8, [x8, x9, lsl #3]
	blr	x8
	tbnz	w0, #0, LBB12_2
	b	LBB12_1
LBB12_1:
	b	LBB12_3
LBB12_2:
	adrp	x8, _t@PAGE
	str	wzr, [x8, _t@PAGEOFF]
	adrp	x9, _active_drawer@PAGE
	ldr	w8, [x9, _active_drawer@PAGEOFF]
	add	w8, w8, #1
	str	w8, [x9, _active_drawer@PAGEOFF]
	b	LBB12_3
LBB12_3:
	ldp	x29, x30, [sp], #16             ; 16-byte Folded Reload
	ret
	.cfi_endproc
                                        ; -- End function
	.globl	_little                         ; -- Begin function little
	.p2align	2
_little:                                ; @little
	.cfi_startproc
; %bb.0:
	sub	sp, sp, #48
	.cfi_def_cfa_offset 48
	stp	x29, x30, [sp, #32]             ; 16-byte Folded Spill
	add	x29, sp, #32
	.cfi_def_cfa w29, 16
	.cfi_offset w30, -8
	.cfi_offset w29, -16
	adrp	x8, _stdscr@GOTPAGE
	ldr	x8, [x8, _stdscr@GOTPAGEOFF]
	str	x8, [sp, #16]                   ; 8-byte Folded Spill
	stur	w0, [x29, #-4]
	bl	_blank
	ldur	w8, [x29, #-4]
	adds	w8, w8, #1
	cset	w8, ne
	tbnz	w8, #0, LBB13_2
	b	LBB13_1
LBB13_1:
	adrp	x8, _active_drawer@PAGE
	ldr	w8, [x8, _active_drawer@PAGEOFF]
	str	w8, [sp, #12]                   ; 4-byte Folded Spill
	b	LBB13_3
LBB13_2:
	ldur	w8, [x29, #-4]
	str	w8, [sp, #12]                   ; 4-byte Folded Spill
	b	LBB13_3
LBB13_3:
	ldr	w8, [sp, #12]                   ; 4-byte Folded Reload
	adrp	x9, _active_drawer@PAGE
	str	w8, [x9, _active_drawer@PAGEOFF]
	b	LBB13_4
LBB13_4:                                ; =>This Inner Loop Header: Depth=1
	ldr	x8, [sp, #16]                   ; 8-byte Folded Reload
	ldr	x0, [x8]
	bl	_getmaxy
	ldr	x8, [sp, #16]                   ; 8-byte Folded Reload
	adrp	x9, _actual_h@PAGE
	str	w0, [x9, _actual_h@PAGEOFF]
	ldr	x0, [x8]
	bl	_getmaxx
	ldr	x8, [sp, #16]                   ; 8-byte Folded Reload
	adrp	x9, _actual_w@PAGE
	str	w0, [x9, _actual_w@PAGEOFF]
	ldr	x0, [x8]
	bl	_wgetch
	str	w0, [sp, #8]                    ; 4-byte Folded Spill
	subs	w8, w0, #97
	cset	w8, eq
	tbnz	w8, #0, LBB13_9
	b	LBB13_5
LBB13_5:                                ;   in Loop: Header=BB13_4 Depth=1
	ldr	w8, [sp, #8]                    ; 4-byte Folded Reload
	subs	w8, w8, #113
	cset	w8, eq
	tbnz	w8, #0, LBB13_7
	b	LBB13_6
LBB13_6:                                ;   in Loop: Header=BB13_4 Depth=1
	ldr	w8, [sp, #8]                    ; 4-byte Folded Reload
	subs	w8, w8, #114
	cset	w8, eq
	tbnz	w8, #0, LBB13_8
	b	LBB13_10
LBB13_7:
	ldp	x29, x30, [sp, #32]             ; 16-byte Folded Reload
	add	sp, sp, #48
	ret
LBB13_8:                                ;   in Loop: Header=BB13_4 Depth=1
	adrp	x8, _t@PAGE
	str	wzr, [x8, _t@PAGEOFF]
	adrp	x8, _active_drawer@PAGE
	str	wzr, [x8, _active_drawer@PAGEOFF]
	adrp	x9, _speed@PAGE
	mov	w8, #1
	str	w8, [x9, _speed@PAGEOFF]
	b	LBB13_11
LBB13_9:                                ;   in Loop: Header=BB13_4 Depth=1
	mov	w8, #6
	adrp	x9, _active_drawer@PAGE
	str	w8, [x9, _active_drawer@PAGEOFF]
	b	LBB13_11
LBB13_10:                               ;   in Loop: Header=BB13_4 Depth=1
	b	LBB13_11
LBB13_11:                               ;   in Loop: Header=BB13_4 Depth=1
	bl	_draw
	bl	_render
	adrp	x8, _speed@PAGE
	ldr	w9, [x8, _speed@PAGEOFF]
	mov	w8, #6784
	movk	w8, #6, lsl #16
	sdiv	w0, w8, w9
	bl	_usleep
	adrp	x9, _t@PAGE
	ldr	w8, [x9, _t@PAGEOFF]
	add	w8, w8, #1
	str	w8, [x9, _t@PAGEOFF]
	b	LBB13_4
	.cfi_endproc
                                        ; -- End function
	.globl	_render                         ; -- Begin function render
	.p2align	2
_render:                                ; @render
	.cfi_startproc
; %bb.0:
	sub	sp, sp, #48
	.cfi_def_cfa_offset 48
	stp	x29, x30, [sp, #32]             ; 16-byte Folded Spill
	add	x29, sp, #32
	.cfi_def_cfa w29, 16
	.cfi_offset w30, -8
	.cfi_offset w29, -16
	adrp	x8, _stdscr@GOTPAGE
	ldr	x8, [x8, _stdscr@GOTPAGEOFF]
	str	x8, [sp, #8]                    ; 8-byte Folded Spill
	ldr	x0, [x8]
	bl	_wclear
	stur	wzr, [x29, #-4]
	b	LBB14_1
LBB14_1:                                ; =>This Loop Header: Depth=1
                                        ;     Child Loop BB14_3 Depth 2
	ldur	w8, [x29, #-4]
	adrp	x9, _actual_h@PAGE
	ldr	w9, [x9, _actual_h@PAGEOFF]
	subs	w8, w8, w9
	cset	w8, ge
	tbnz	w8, #0, LBB14_11
	b	LBB14_2
LBB14_2:                                ;   in Loop: Header=BB14_1 Depth=1
	stur	wzr, [x29, #-8]
	b	LBB14_3
LBB14_3:                                ;   Parent Loop BB14_1 Depth=1
                                        ; =>  This Inner Loop Header: Depth=2
	ldur	w8, [x29, #-8]
	adrp	x9, _actual_w@PAGE
	ldr	w9, [x9, _actual_w@PAGEOFF]
	subs	w8, w8, w9
	cset	w8, ge
	tbnz	w8, #0, LBB14_9
	b	LBB14_4
LBB14_4:                                ;   in Loop: Header=BB14_3 Depth=2
	ldr	x8, [sp, #8]                    ; 8-byte Folded Reload
	ldursw	x10, [x29, #-4]
	adrp	x9, _screen@PAGE
	add	x9, x9, _screen@PAGEOFF
	add	x9, x9, x10, lsl #10
	ldursw	x10, [x29, #-8]
	add	x9, x9, x10
	ldrb	w9, [x9]
	sturb	w9, [x29, #-9]
	ldursw	x10, [x29, #-4]
	adrp	x9, _colors@PAGE
	add	x9, x9, _colors@PAGEOFF
	add	x9, x9, x10, lsl #10
	ldursw	x10, [x29, #-8]
	add	x9, x9, x10
	ldrb	w9, [x9]
	sturb	w9, [x29, #-10]
	ldr	x0, [x8]
	ldursb	w8, [x29, #-10]
	lsl	w1, w8, #8
	mov	x2, #0
	bl	_wattr_on
	ldr	x8, [sp, #8]                    ; 8-byte Folded Reload
	ldr	x0, [x8]
	ldur	w1, [x29, #-4]
	ldur	w2, [x29, #-8]
	bl	_wmove
	adds	w8, w0, #1
	cset	w8, ne
	tbnz	w8, #0, LBB14_6
	b	LBB14_5
LBB14_5:                                ;   in Loop: Header=BB14_3 Depth=2
	b	LBB14_7
LBB14_6:                                ;   in Loop: Header=BB14_3 Depth=2
	ldr	x8, [sp, #8]                    ; 8-byte Folded Reload
	ldr	x0, [x8]
	ldursb	w1, [x29, #-9]
	bl	_waddch
	b	LBB14_7
LBB14_7:                                ;   in Loop: Header=BB14_3 Depth=2
	ldr	x8, [sp, #8]                    ; 8-byte Folded Reload
	ldr	x0, [x8]
	ldursb	w8, [x29, #-10]
	lsl	w1, w8, #8
	mov	x2, #0
	bl	_wattr_off
	b	LBB14_8
LBB14_8:                                ;   in Loop: Header=BB14_3 Depth=2
	ldur	w8, [x29, #-8]
	add	w8, w8, #1
	stur	w8, [x29, #-8]
	b	LBB14_3
LBB14_9:                                ;   in Loop: Header=BB14_1 Depth=1
	b	LBB14_10
LBB14_10:                               ;   in Loop: Header=BB14_1 Depth=1
	ldur	w8, [x29, #-4]
	add	w8, w8, #1
	stur	w8, [x29, #-4]
	b	LBB14_1
LBB14_11:
	ldr	x8, [sp, #8]                    ; 8-byte Folded Reload
	ldr	x0, [x8]
	bl	_wrefresh
	ldp	x29, x30, [sp, #32]             ; 16-byte Folded Reload
	add	sp, sp, #48
	ret
	.cfi_endproc
                                        ; -- End function
	.globl	_main                           ; -- Begin function main
	.p2align	2
_main:                                  ; @main
	.cfi_startproc
; %bb.0:
	sub	sp, sp, #32
	.cfi_def_cfa_offset 32
	stp	x29, x30, [sp, #16]             ; 16-byte Folded Spill
	add	x29, sp, #16
	.cfi_def_cfa w29, 16
	.cfi_offset w30, -8
	.cfi_offset w29, -16
	stur	wzr, [x29, #-4]
	str	w0, [sp, #8]
	str	x1, [sp]
	bl	_setup
	ldr	w8, [sp, #8]
	subs	w8, w8, #1
	cset	w8, ne
	tbnz	w8, #0, LBB15_2
	b	LBB15_1
LBB15_1:
	mov	w0, #-1
	bl	_little
	b	LBB15_3
LBB15_2:
	ldr	x8, [sp]
	ldr	x0, [x8, #8]
	bl	_atoi
	bl	_little
	b	LBB15_3
LBB15_3:
	mov	w0, #0
	bl	_finish
	ldur	w0, [x29, #-4]
	ldp	x29, x30, [sp, #16]             ; 16-byte Folded Reload
	add	sp, sp, #32
	ret
	.cfi_endproc
                                        ; -- End function
	.globl	_setup                          ; -- Begin function setup
	.p2align	2
_setup:                                 ; @setup
	.cfi_startproc
; %bb.0:
	sub	sp, sp, #32
	.cfi_def_cfa_offset 32
	stp	x29, x30, [sp, #16]             ; 16-byte Folded Spill
	add	x29, sp, #16
	.cfi_def_cfa w29, 16
	.cfi_offset w30, -8
	.cfi_offset w29, -16
	mov	x0, #0
	bl	_time
                                        ; kill: def $w0 killed $w0 killed $x0
	bl	_srand
	mov	w0, #2
	adrp	x1, _finish@PAGE
	add	x1, x1, _finish@PAGEOFF
	bl	_signal
	bl	_initscr
	bl	_noecho
	mov	w0, #0
	stur	w0, [x29, #-4]                  ; 4-byte Folded Spill
	bl	_curs_set
	adrp	x8, _stdscr@GOTPAGE
	ldr	x8, [x8, _stdscr@GOTPAGEOFF]
	ldr	x0, [x8]
	mov	w8, #1
	str	w8, [sp, #8]                    ; 4-byte Folded Spill
	and	w1, w8, #0x1
	bl	_nodelay
	bl	_start_color
	ldur	w2, [x29, #-4]                  ; 4-byte Folded Reload
	mov	x0, x2
	mov	w1, #7
	bl	_init_pair
	ldr	w1, [sp, #8]                    ; 4-byte Folded Reload
	ldur	w2, [x29, #-4]                  ; 4-byte Folded Reload
	mov	x0, x1
	bl	_init_pair
	ldp	x29, x30, [sp, #16]             ; 16-byte Folded Reload
	add	sp, sp, #32
	ret
	.cfi_endproc
                                        ; -- End function
	.p2align	2                               ; -- Begin function finish
_finish:                                ; @finish
	.cfi_startproc
; %bb.0:
	sub	sp, sp, #32
	.cfi_def_cfa_offset 32
	stp	x29, x30, [sp, #16]             ; 16-byte Folded Spill
	add	x29, sp, #16
	.cfi_def_cfa w29, 16
	.cfi_offset w30, -8
	.cfi_offset w29, -16
	stur	w0, [x29, #-4]
	bl	_endwin
	mov	w0, #0
	bl	_exit
	.cfi_endproc
                                        ; -- End function
	.globl	_gamble                         ; -- Begin function gamble
	.p2align	2
_gamble:                                ; @gamble
	.cfi_startproc
; %bb.0:
	sub	sp, sp, #32
	.cfi_def_cfa_offset 32
	stp	x29, x30, [sp, #16]             ; 16-byte Folded Spill
	add	x29, sp, #16
	.cfi_def_cfa w29, 16
	.cfi_offset w30, -8
	.cfi_offset w29, -16
	stur	w0, [x29, #-4]
	str	w1, [sp, #8]
	bl	_rand
	ldr	w8, [sp, #8]
	ldur	w9, [x29, #-4]
	add	w9, w8, w9
	sdiv	w8, w0, w9
	mul	w8, w8, w9
	subs	w8, w0, w8
	ldur	w9, [x29, #-4]
	add	w0, w8, w9
	ldp	x29, x30, [sp, #16]             ; 16-byte Folded Reload
	add	sp, sp, #32
	ret
	.cfi_endproc
                                        ; -- End function
.zerofill __DATA,__bss,_screen,1048576,0 ; @screen
.zerofill __DATA,__bss,_colors,1048576,0 ; @colors
	.section	__TEXT,__cstring,cstring_literals
l_.str:                                 ; @.str
	.asciz	"little my "

.zerofill __DATA,__bss,_t,4,2           ; @t
.zerofill __DATA,__bss,_actual_h,4,2    ; @actual_h
.zerofill __DATA,__bss,_actual_w,4,2    ; @actual_w
	.section	__DATA,__data
	.p2align	2, 0x0                          ; @speed
_speed:
	.long	1                               ; 0x1

	.section	__TEXT,__cstring,cstring_literals
l_.str.1:                               ; @.str.1
	.asciz	"my "

l_.str.2:                               ; @.str.2
	.asciz	"nicholas "

l_.str.3:                               ; @.str.3
	.asciz	"little nicolas "

l_.str.4:                               ; @.str.4
	.asciz	"loading      "

	.section	__DATA,__data
_star_image_bits:                       ; @star_image_bits
